Certificate:
    Data:
        Version: 3 (0x2)
        Serial Number: 1 (0x1)
    Signature Algorithm: ecdsa-with-SHA256
        Issuer: CN=Attestation Root
        Validity
            Not Before: Apr  7 03:15:02 2022 GMT
            Not After : Apr  4 03:15:02 2032 GMT
        Subject: CN=Attestation Cert
        Subject Public Key Info:
            Public Key Algorithm: rsaEncryption
                Public-Key: (2048 bit)
                Modulus:
                    00:c9:d4:53:b9:23:38:bf:ff:94:13:f9:4e:83:d8:
                    00:06:10:11:8d:25:1d:71:b0:d7:f9:6d:c8:c6:cb:
                    b4:f0:d8:0c:cf:80:a5:89:97:24:93:61:b7:f7:11:
                    74:64:3e:ca:72:9d:79:dc:02:0b:fa:ea:2d:43:93:
                    ea:b1:9f:13:d8:bc:69:50:74:c7:bd:37:af:8e:ec:
                    f6:81:99:37:82:7a:14:0f:7f:a7:95:5b:af:1d:4d:
                    2e:47:81:dc:aa:11:c7:b1:9d:d5:11:56:7c:87:9a:
                    a9:d8:67:57:4a:70:cb:03:34:ae:4f:08:ea:ed:e8:
                    fe:33:16:0b:e4:4b:e9:5c:d9:9a:89:6c:69:c5:89:
                    9e:d5:74:11:1d:52:e4:52:67:f9:3e:8a:42:1f:15:
                    2e:fa:7a:c2:81:91:74:1e:c7:c0:99:f6:68:1a:30:
                    11:2a:a0:ef:10:10:f9:90:ff:44:ee:c0:3d:00:42:
                    4a:2f:d3:14:3a:3c:df:10:76:71:f8:1d:1b:68:b8:
                    d1:da:3a:86:22:98:71:25:27:a6:23:0d:f5:65:b5:
                    f5:2b:7b:01:97:9b:47:f1:f8:b7:33:6f:41:1c:2f:
                    9a:69:04:35:d7:e8:9b:32:bf:f2:59:76:e2:33:bd:
                    d1:6f:56:5d:36:f6:12:47:7e:1b:4b:8c:1a:d5:64:
                    d0:55
                Exponent: 65537 (0x10001)
        X509v3 extensions:
            X509v3 Basic Constraints: 
                CA:TRUE, pathlen:0
            X509v3 Authority Key Identifier: 
                keyid:C3:7A:B8:9F:55:0F:93:C4:44:51:25:11:A3:92:08:B8:50:55:86:3B
                DirName:/CN=Attestation Root
                serial:B0:4D:EB:74:55:3A:E7:C8

            X509v3 Subject Key Identifier: 
                4D:9E:02:FF:3D:6B:67:56:75:B3:B8:36:F5:D9:D2:DE:94:A5:B0:A8
    Signature Algorithm: ecdsa-with-SHA256
         30:46:02:21:00:e1:29:3a:d7:3b:f3:b4:56:dd:80:cf:90:05:
         94:f8:55:30:f8:5a:7e:b3:9e:f0:1a:8d:d6:73:80:25:f1:da:
         f7:02:21:00:f2:c6:b9:72:5e:ed:dd:af:51:95:e7:8f:7e:d1:
         e6:3f:3c:25:32:78:68:8d:08:2a:42:f5:95:d9:5c:d7:0a:05
-----BEGIN CERTIFICATE-----
MIICcDCCAhWgAwIBAgIBATAKBggqhkjOPQQDAjAbMRkwFwYDVQQDDBBBdHRlc3Rh
dGlvbiBSb290MB4XDTIyMDQwNzAzMTUwMloXDTMyMDQwNDAzMTUwMlowGzEZMBcG
A1UEAwwQQXR0ZXN0YXRpb24gQ2VydDCCASIwDQYJKoZIhvcNAQEBBQADggEPADCC
AQoCggEBAMnUU7kjOL//lBP5ToPYAAYQEY0lHXGw1/ltyMbLtPDYDM+ApYmXJJNh
t/cRdGQ+ynKdedwCC/rqLUOT6rGfE9i8aVB0x703r47s9oGZN4J6FA9/p5Vbrx1N
LkeB3KoRx7Gd1RFWfIeaqdhnV0pwywM0rk8I6u3o/jMWC+RL6VzZmolsacWJntV0
ER1S5FJn+T6KQh8VLvp6woGRdB7HwJn2aBowESqg7xAQ+ZD/RO7APQBCSi/TFDo8
3xB2cfgdG2i40do6hiKYcSUnpiMN9WW19St7AZebR/H4tzNvQRwvmmkENdfomzK/
8ll24jO90W9WXTb2Ekd+G0uMGtVk0FUCAwEAAaN/MH0wDwYDVR0TBAgwBgEB/wIB
ADBLBgNVHSMERDBCgBTDerifVQ+TxERRJRGjkgi4UFWGO6EfpB0wGzEZMBcGA1UE
AwwQQXR0ZXN0YXRpb24gUm9vdIIJALBN63RVOufIMB0GA1UdDgQWBBRNngL/PWtn
VnWzuDb12dLelKWwqDAKBggqhkjOPQQDAgNJADBGAiEA4Sk61zvztFbdgM+QBZT4
VTD4Wn6znvAajdZzgCXx2vcCIQDyxrlyXu3dr1GV549+0eY/PCUyeGiNCCpC9ZXZ
XNcKBQ==
-----END CERTIFICATE-----
